; ModuleID = '45/2571.c'
source_filename = "45/2571.c"
target datalayout = "e-m:e-p270:32:32-p271:32:32-p272:64:64-i64:64-f80:128-n8:16:32:64-S128"
target triple = "x86_64-pc-linux-gnu"

@.str = private unnamed_addr constant [5 x i8] c"%s%s\00", align 1
@.str.1 = private unnamed_addr constant [3 x i8] c"%d\00", align 1

; Function Attrs: noinline nounwind uwtable
define dso_local i32 @main(i32 %0, i8** %1) #0 {
  %3 = alloca i32, align 4
  %4 = alloca i32, align 4
  %5 = alloca i8**, align 8
  %6 = alloca [50 x i8], align 16
  %7 = alloca [50 x i8], align 16
  %8 = alloca i32, align 4
  %9 = alloca i32, align 4
  %10 = alloca i32, align 4
  %11 = alloca i32, align 4
  store i32 0, i32* %3, align 4
  store i32 %0, i32* %4, align 4
  store i8** %1, i8*** %5, align 8
  %12 = getelementptr inbounds [50 x i8], [50 x i8]* %6, i64 0, i64 0
  %13 = getelementptr inbounds [50 x i8], [50 x i8]* %7, i64 0, i64 0
  %14 = call i32 (i8*, ...) @__isoc99_scanf(i8* getelementptr inbounds ([5 x i8], [5 x i8]* @.str, i64 0, i64 0), i8* %12, i8* %13)
  %15 = getelementptr inbounds [50 x i8], [50 x i8]* %6, i64 0, i64 0
  %16 = call i64 @strlen(i8* %15) #3
  %17 = trunc i64 %16 to i32
  store i32 %17, i32* %10, align 4
  %18 = getelementptr inbounds [50 x i8], [50 x i8]* %7, i64 0, i64 0
  %19 = call i64 @strlen(i8* %18) #3
  %20 = trunc i64 %19 to i32
  store i32 %20, i32* %11, align 4
  store i32 0, i32* %8, align 4
  br label %21

21:                                               ; preds = %68, %2
  %22 = load i32, i32* %8, align 4
  %23 = load i32, i32* %11, align 4
  %24 = icmp slt i32 %22, %23
  br i1 %24, label %25, label %71

25:                                               ; preds = %21
  %26 = getelementptr inbounds [50 x i8], [50 x i8]* %6, i64 0, i64 0
  %27 = load i8, i8* %26, align 16
  %28 = sext i8 %27 to i32
  %29 = load i32, i32* %8, align 4
  %30 = sext i32 %29 to i64
  %31 = getelementptr inbounds [50 x i8], [50 x i8]* %7, i64 0, i64 %30
  %32 = load i8, i8* %31, align 1
  %33 = sext i8 %32 to i32
  %34 = icmp eq i32 %28, %33
  br i1 %34, label %35, label %67

35:                                               ; preds = %25
  store i32 0, i32* %9, align 4
  br label %36

36:                                               ; preds = %56, %35
  %37 = load i32, i32* %9, align 4
  %38 = load i32, i32* %10, align 4
  %39 = icmp slt i32 %37, %38
  br i1 %39, label %40, label %59

40:                                               ; preds = %36
  %41 = load i32, i32* %9, align 4
  %42 = sext i32 %41 to i64
  %43 = getelementptr inbounds [50 x i8], [50 x i8]* %6, i64 0, i64 %42
  %44 = load i8, i8* %43, align 1
  %45 = sext i8 %44 to i32
  %46 = load i32, i32* %8, align 4
  %47 = load i32, i32* %9, align 4
  %48 = add nsw i32 %46, %47
  %49 = sext i32 %48 to i64
  %50 = getelementptr inbounds [50 x i8], [50 x i8]* %7, i64 0, i64 %49
  %51 = load i8, i8* %50, align 1
  %52 = sext i8 %51 to i32
  %53 = icmp ne i32 %45, %52
  br i1 %53, label %54, label %55

54:                                               ; preds = %40
  br label %59

55:                                               ; preds = %40
  br label %56

56:                                               ; preds = %55
  %57 = load i32, i32* %9, align 4
  %58 = add nsw i32 %57, 1
  store i32 %58, i32* %9, align 4
  br label %36

59:                                               ; preds = %54, %36
  %60 = load i32, i32* %9, align 4
  %61 = load i32, i32* %10, align 4
  %62 = icmp eq i32 %60, %61
  br i1 %62, label %63, label %66

63:                                               ; preds = %59
  %64 = load i32, i32* %8, align 4
  %65 = call i32 (i8*, ...) @printf(i8* getelementptr inbounds ([3 x i8], [3 x i8]* @.str.1, i64 0, i64 0), i32 %64)
  br label %71

66:                                               ; preds = %59
  br label %67

67:                                               ; preds = %66, %25
  br label %68

68:                                               ; preds = %67
  %69 = load i32, i32* %8, align 4
  %70 = add nsw i32 %69, 1
  store i32 %70, i32* %8, align 4
  br label %21

71:                                               ; preds = %63, %21
  ret i32 0
}

declare dso_local i32 @__isoc99_scanf(i8*, ...) #1

; Function Attrs: nounwind readonly
declare dso_local i64 @strlen(i8*) #2

declare dso_local i32 @printf(i8*, ...) #1


!llvm.module.flags = !{!0}
!llvm.ident = !{!1}

!0 = !{i32 1, !"wchar_size", i32 4}
!1 = !{!"clang version 10.0.0-4ubuntu1 "}
