; ModuleID = 'source-C-CXX/44/2571.c'
source_filename = "source-C-CXX/44/2571.c"
target datalayout = "e-m:e-p270:32:32-p271:32:32-p272:64:64-i64:64-f80:128-n8:16:32:64-S128"
target triple = "x86_64-pc-linux-gnu"

@.str = private unnamed_addr constant [5 x i8] c"%s%s\00", align 1
@.str.1 = private unnamed_addr constant [3 x i8] c"%d\00", align 1

; Function Attrs: nofree nounwind sspstrong uwtable
define dso_local i32 @main(i32 %0, i8** nocapture readnone %1) local_unnamed_addr #0 {
  %3 = alloca [50 x i8], align 16
  %4 = alloca [50 x i8], align 16
  %5 = getelementptr inbounds [50 x i8], [50 x i8]* %3, i64 0, i64 0
  call void @llvm.lifetime.start.p0i8(i64 50, i8* nonnull %5) #4
  %6 = getelementptr inbounds [50 x i8], [50 x i8]* %4, i64 0, i64 0
  call void @llvm.lifetime.start.p0i8(i64 50, i8* nonnull %6) #4
  %7 = call i32 (i8*, ...) @__isoc99_scanf(i8* getelementptr inbounds ([5 x i8], [5 x i8]* @.str, i64 0, i64 0), i8* nonnull %5, i8* nonnull %6)
  %8 = call i64 @strlen(i8* noundef nonnull %5) #5
  %9 = trunc i64 %8 to i32
  %10 = call i64 @strlen(i8* noundef nonnull %6) #5
  %11 = trunc i64 %10 to i32
  %12 = load i8, i8* %5, align 16
  %13 = icmp sgt i32 %11, 0
  br i1 %13, label %14, label %57

14:                                               ; preds = %2
  %15 = icmp sgt i32 %9, 0
  br i1 %15, label %16, label %41

16:                                               ; preds = %14
  %17 = and i64 %10, 4294967295
  %18 = and i64 %8, 4294967295
  br label %19

19:                                               ; preds = %16, %35
  %20 = phi i64 [ 0, %16 ], [ %36, %35 ]
  %21 = getelementptr inbounds [50 x i8], [50 x i8]* %4, i64 0, i64 %20
  %22 = load i8, i8* %21, align 1, !tbaa !5
  %23 = icmp eq i8 %12, %22
  br i1 %23, label %24, label %35

24:                                               ; preds = %19, %38
  %25 = phi i64 [ %39, %38 ], [ 0, %19 ]
  %26 = getelementptr inbounds [50 x i8], [50 x i8]* %3, i64 0, i64 %25
  %27 = load i8, i8* %26, align 1, !tbaa !5
  %28 = add nuw nsw i64 %25, %20
  %29 = getelementptr inbounds [50 x i8], [50 x i8]* %4, i64 0, i64 %28
  %30 = load i8, i8* %29, align 1, !tbaa !5
  %31 = icmp eq i8 %27, %30
  br i1 %31, label %38, label %32

32:                                               ; preds = %24
  %33 = trunc i64 %25 to i32
  %34 = icmp eq i32 %33, %9
  br i1 %34, label %53, label %35

35:                                               ; preds = %32, %19
  %36 = add nuw nsw i64 %20, 1
  %37 = icmp eq i64 %36, %17
  br i1 %37, label %57, label %19, !llvm.loop !8

38:                                               ; preds = %24
  %39 = add nuw nsw i64 %25, 1
  %40 = icmp eq i64 %39, %18
  br i1 %40, label %53, label %24, !llvm.loop !10

41:                                               ; preds = %14
  %42 = icmp eq i32 %9, 0
  br i1 %42, label %43, label %57

43:                                               ; preds = %41
  %44 = and i64 %10, 4294967295
  br label %45

45:                                               ; preds = %43, %50
  %46 = phi i64 [ 0, %43 ], [ %51, %50 ]
  %47 = getelementptr inbounds [50 x i8], [50 x i8]* %4, i64 0, i64 %46
  %48 = load i8, i8* %47, align 1, !tbaa !5
  %49 = icmp eq i8 %12, %48
  br i1 %49, label %53, label %50

50:                                               ; preds = %45
  %51 = add nuw nsw i64 %46, 1
  %52 = icmp eq i64 %51, %44
  br i1 %52, label %57, label %45, !llvm.loop !8

53:                                               ; preds = %45, %32, %38
  %54 = phi i64 [ %20, %38 ], [ %20, %32 ], [ %46, %45 ]
  %55 = trunc i64 %54 to i32
  %56 = call i32 (i8*, ...) @printf(i8* nonnull dereferenceable(1) getelementptr inbounds ([3 x i8], [3 x i8]* @.str.1, i64 0, i64 0), i32 %55)
  br label %57

57:                                               ; preds = %50, %35, %41, %2, %53
  call void @llvm.lifetime.end.p0i8(i64 50, i8* nonnull %6) #4
  call void @llvm.lifetime.end.p0i8(i64 50, i8* nonnull %5) #4
  ret i32 0
}

; Function Attrs: argmemonly mustprogress nofree nosync nounwind willreturn
declare void @llvm.lifetime.start.p0i8(i64 immarg, i8* nocapture) #1

; Function Attrs: nofree nounwind
declare noundef i32 @__isoc99_scanf(i8* nocapture noundef readonly, ...) local_unnamed_addr #2

; Function Attrs: argmemonly mustprogress nofree nounwind readonly willreturn
declare i64 @strlen(i8* nocapture) local_unnamed_addr #3

; Function Attrs: nofree nounwind
declare noundef i32 @printf(i8* nocapture noundef readonly, ...) local_unnamed_addr #2

; Function Attrs: argmemonly mustprogress nofree nosync nounwind willreturn
declare void @llvm.lifetime.end.p0i8(i64 immarg, i8* nocapture) #1


!llvm.module.flags = !{!0, !1, !2, !3}
!llvm.ident = !{!4}

!0 = !{i32 1, !"wchar_size", i32 4}
!1 = !{i32 7, !"PIC Level", i32 2}
!2 = !{i32 7, !"PIE Level", i32 2}
!3 = !{i32 7, !"uwtable", i32 1}
!4 = !{!"clang version 13.0.0"}
!5 = !{!6, !6, i64 0}
!6 = !{!"omnipotent char", !7, i64 0}
!7 = !{!"Simple C/C++ TBAA"}
!8 = distinct !{!8, !9}
!9 = !{!"llvm.loop.mustprogress"}
!10 = distinct !{!10, !9}
